(lp1
(lp2
S'aardvark'
p3
aI1
aI0
aI0
aI1
aI0
aI0
aI1
aI1
aI1
aI1
aI0
aI0
aI4
aI0
aI0
aI1
aI1
aa(lp4
S'antelope'
p5
aI1
aI0
aI0
aI1
aI0
aI0
aI0
aI1
aI1
aI1
aI0
aI0
aI4
aI1
aI0
aI1
aI1
aa(lp6
S'bass'
p7
aI0
aI0
aI1
aI0
aI0
aI1
aI1
aI1
aI1
aI0
aI0
aI1
aI0
aI1
aI0
aI0
aI4
aa(lp8
S'bear'
p9
aI1
aI0
aI0
aI1
aI0
aI0
aI1
aI1
aI1
aI1
aI0
aI0
aI4
aI0
aI0
aI1
aI1
aa(lp10
S'boar'
p11
aI1
aI0
aI0
aI1
aI0
aI0
aI1
aI1
aI1
aI1
aI0
aI0
aI4
aI1
aI0
aI1
aI1
aa(lp12
S'buffalo'
p13
aI1
aI0
aI0
aI1
aI0
aI0
aI0
aI1
aI1
aI1
aI0
aI0
aI4
aI1
aI0
aI1
aI1
aa(lp14
S'calf'
p15
aI1
aI0
aI0
aI1
aI0
aI0
aI0
aI1
aI1
aI1
aI0
aI0
aI4
aI1
aI1
aI1
aI1
aa(lp16
S'carp'
p17
aI0
aI0
aI1
aI0
aI0
aI1
aI0
aI1
aI1
aI0
aI0
aI1
aI0
aI1
aI1
aI0
aI4
aa(lp18
S'catfish'
p19
aI0
aI0
aI1
aI0
aI0
aI1
aI1
aI1
aI1
aI0
aI0
aI1
aI0
aI1
aI0
aI0
aI4
aa(lp20
S'cavy'
p21
aI1
aI0
aI0
aI1
aI0
aI0
aI0
aI1
aI1
aI1
aI0
aI0
aI4
aI0
aI1
aI0
aI1
aa(lp22
S'cheetah'
p23
aI1
aI0
aI0
aI1
aI0
aI0
aI1
aI1
aI1
aI1
aI0
aI0
aI4
aI1
aI0
aI1
aI1
aa(lp24
S'chicken'
p25
aI0
aI1
aI1
aI0
aI1
aI0
aI0
aI0
aI1
aI1
aI0
aI0
aI2
aI1
aI1
aI0
aI2
aa(lp26
S'chub'
p27
aI0
aI0
aI1
aI0
aI0
aI1
aI1
aI1
aI1
aI0
aI0
aI1
aI0
aI1
aI0
aI0
aI4
aa(lp28
S'clam'
p29
aI0
aI0
aI1
aI0
aI0
aI0
aI1
aI0
aI0
aI0
aI0
aI0
aI0
aI0
aI0
aI0
aI7
aa(lp30
S'crab'
p31
aI0
aI0
aI1
aI0
aI0
aI1
aI1
aI0
aI0
aI0
aI0
aI0
aI4
aI0
aI0
aI0
aI7
aa(lp32
S'crayfish'
p33
aI0
aI0
aI1
aI0
aI0
aI1
aI1
aI0
aI0
aI0
aI0
aI0
aI6
aI0
aI0
aI0
aI7
aa(lp34
S'crow'
p35
aI0
aI1
aI1
aI0
aI1
aI0
aI1
aI0
aI1
aI1
aI0
aI0
aI2
aI1
aI0
aI0
aI2
aa(lp36
S'deer'
p37
aI1
aI0
aI0
aI1
aI0
aI0
aI0
aI1
aI1
aI1
aI0
aI0
aI4
aI1
aI0
aI1
aI1
aa(lp38
S'dogfish'
p39
aI0
aI0
aI1
aI0
aI0
aI1
aI1
aI1
aI1
aI0
aI0
aI1
aI0
aI1
aI0
aI1
aI4
aa(lp40
S'dolphin'
p41
aI0
aI0
aI0
aI1
aI0
aI1
aI1
aI1
aI1
aI1
aI0
aI1
aI0
aI1
aI0
aI1
aI1
aa(lp42
S'dove'
p43
aI0
aI1
aI1
aI0
aI1
aI0
aI0
aI0
aI1
aI1
aI0
aI0
aI2
aI1
aI1
aI0
aI2
aa(lp44
S'duck'
p45
aI0
aI1
aI1
aI0
aI1
aI1
aI0
aI0
aI1
aI1
aI0
aI0
aI2
aI1
aI0
aI0
aI2
aa(lp46
S'elephant'
p47
aI1
aI0
aI0
aI1
aI0
aI0
aI0
aI1
aI1
aI1
aI0
aI0
aI4
aI1
aI0
aI1
aI1
aa(lp48
S'flamingo'
p49
aI0
aI1
aI1
aI0
aI1
aI0
aI0
aI0
aI1
aI1
aI0
aI0
aI2
aI1
aI0
aI1
aI2
aa(lp50
S'flea'
p51
aI0
aI0
aI1
aI0
aI0
aI0
aI0
aI0
aI0
aI1
aI0
aI0
aI6
aI0
aI0
aI0
aI6
aa(lp52
S'frog'
p53
aI0
aI0
aI1
aI0
aI0
aI1
aI1
aI1
aI1
aI1
aI0
aI0
aI4
aI0
aI0
aI0
aI5
aa(lp54
S'frog'
p55
aI0
aI0
aI1
aI0
aI0
aI1
aI1
aI1
aI1
aI1
aI1
aI0
aI4
aI0
aI0
aI0
aI5
aa(lp56
S'fruitbat'
p57
aI1
aI0
aI0
aI1
aI1
aI0
aI0
aI1
aI1
aI1
aI0
aI0
aI2
aI1
aI0
aI0
aI1
aa(lp58
S'giraffe'
p59
aI1
aI0
aI0
aI1
aI0
aI0
aI0
aI1
aI1
aI1
aI0
aI0
aI4
aI1
aI0
aI1
aI1
aa(lp60
S'girl'
p61
aI1
aI0
aI0
aI1
aI0
aI0
aI1
aI1
aI1
aI1
aI0
aI0
aI2
aI0
aI1
aI1
aI1
aa(lp62
S'gnat'
p63
aI0
aI0
aI1
aI0
aI1
aI0
aI0
aI0
aI0
aI1
aI0
aI0
aI6
aI0
aI0
aI0
aI6
aa(lp64
S'goat'
p65
aI1
aI0
aI0
aI1
aI0
aI0
aI0
aI1
aI1
aI1
aI0
aI0
aI4
aI1
aI1
aI1
aI1
aa(lp66
S'gorilla'
p67
aI1
aI0
aI0
aI1
aI0
aI0
aI0
aI1
aI1
aI1
aI0
aI0
aI2
aI0
aI0
aI1
aI1
aa(lp68
S'gull'
p69
aI0
aI1
aI1
aI0
aI1
aI1
aI1
aI0
aI1
aI1
aI0
aI0
aI2
aI1
aI0
aI0
aI2
aa(lp70
S'haddock'
p71
aI0
aI0
aI1
aI0
aI0
aI1
aI0
aI1
aI1
aI0
aI0
aI1
aI0
aI1
aI0
aI0
aI4
aa(lp72
S'hamster'
p73
aI1
aI0
aI0
aI1
aI0
aI0
aI0
aI1
aI1
aI1
aI0
aI0
aI4
aI1
aI1
aI0
aI1
aa(lp74
S'hare'
p75
aI1
aI0
aI0
aI1
aI0
aI0
aI0
aI1
aI1
aI1
aI0
aI0
aI4
aI1
aI0
aI0
aI1
aa(lp76
S'hawk'
p77
aI0
aI1
aI1
aI0
aI1
aI0
aI1
aI0
aI1
aI1
aI0
aI0
aI2
aI1
aI0
aI0
aI2
aa(lp78
S'herring'
p79
aI0
aI0
aI1
aI0
aI0
aI1
aI1
aI1
aI1
aI0
aI0
aI1
aI0
aI1
aI0
aI0
aI4
aa(lp80
S'honeybee'
p81
aI1
aI0
aI1
aI0
aI1
aI0
aI0
aI0
aI0
aI1
aI1
aI0
aI6
aI0
aI1
aI0
aI6
aa(lp82
S'housefly'
p83
aI1
aI0
aI1
aI0
aI1
aI0
aI0
aI0
aI0
aI1
aI0
aI0
aI6
aI0
aI0
aI0
aI6
aa(lp84
S'kiwi'
p85
aI0
aI1
aI1
aI0
aI0
aI0
aI1
aI0
aI1
aI1
aI0
aI0
aI2
aI1
aI0
aI0
aI2
aa(lp86
S'ladybird'
p87
aI0
aI0
aI1
aI0
aI1
aI0
aI1
aI0
aI0
aI1
aI0
aI0
aI6
aI0
aI0
aI0
aI6
aa(lp88
S'lark'
p89
aI0
aI1
aI1
aI0
aI1
aI0
aI0
aI0
aI1
aI1
aI0
aI0
aI2
aI1
aI0
aI0
aI2
aa(lp90
S'leopard'
p91
aI1
aI0
aI0
aI1
aI0
aI0
aI1
aI1
aI1
aI1
aI0
aI0
aI4
aI1
aI0
aI1
aI1
aa(lp92
S'lion'
p93
aI1
aI0
aI0
aI1
aI0
aI0
aI1
aI1
aI1
aI1
aI0
aI0
aI4
aI1
aI0
aI1
aI1
aa(lp94
S'lobster'
p95
aI0
aI0
aI1
aI0
aI0
aI1
aI1
aI0
aI0
aI0
aI0
aI0
aI6
aI0
aI0
aI0
aI7
aa(lp96
S'lynx'
p97
aI1
aI0
aI0
aI1
aI0
aI0
aI1
aI1
aI1
aI1
aI0
aI0
aI4
aI1
aI0
aI1
aI1
aa(lp98
S'mink'
p99
aI1
aI0
aI0
aI1
aI0
aI1
aI1
aI1
aI1
aI1
aI0
aI0
aI4
aI1
aI0
aI1
aI1
aa(lp100
S'mole'
p101
aI1
aI0
aI0
aI1
aI0
aI0
aI1
aI1
aI1
aI1
aI0
aI0
aI4
aI1
aI0
aI0
aI1
aa(lp102
S'mongoose'
p103
aI1
aI0
aI0
aI1
aI0
aI0
aI1
aI1
aI1
aI1
aI0
aI0
aI4
aI1
aI0
aI1
aI1
aa(lp104
S'moth'
p105
aI1
aI0
aI1
aI0
aI1
aI0
aI0
aI0
aI0
aI1
aI0
aI0
aI6
aI0
aI0
aI0
aI6
aa(lp106
S'newt'
p107
aI0
aI0
aI1
aI0
aI0
aI1
aI1
aI1
aI1
aI1
aI0
aI0
aI4
aI1
aI0
aI0
aI5
aa(lp108
S'octopus'
p109
aI0
aI0
aI1
aI0
aI0
aI1
aI1
aI0
aI0
aI0
aI0
aI0
aI8
aI0
aI0
aI1
aI7
aa(lp110
S'opossum'
p111
aI1
aI0
aI0
aI1
aI0
aI0
aI1
aI1
aI1
aI1
aI0
aI0
aI4
aI1
aI0
aI0
aI1
aa(lp112
S'oryx'
p113
aI1
aI0
aI0
aI1
aI0
aI0
aI0
aI1
aI1
aI1
aI0
aI0
aI4
aI1
aI0
aI1
aI1
aa(lp114
S'ostrich'
p115
aI0
aI1
aI1
aI0
aI0
aI0
aI0
aI0
aI1
aI1
aI0
aI0
aI2
aI1
aI0
aI1
aI2
aa(lp116
S'parakeet'
p117
aI0
aI1
aI1
aI0
aI1
aI0
aI0
aI0
aI1
aI1
aI0
aI0
aI2
aI1
aI1
aI0
aI2
aa(lp118
S'penguin'
p119
aI0
aI1
aI1
aI0
aI0
aI1
aI1
aI0
aI1
aI1
aI0
aI0
aI2
aI1
aI0
aI1
aI2
aa(lp120
S'pheasant'
p121
aI0
aI1
aI1
aI0
aI1
aI0
aI0
aI0
aI1
aI1
aI0
aI0
aI2
aI1
aI0
aI0
aI2
aa(lp122
S'pike'
p123
aI0
aI0
aI1
aI0
aI0
aI1
aI1
aI1
aI1
aI0
aI0
aI1
aI0
aI1
aI0
aI1
aI4
aa(lp124
S'piranha'
p125
aI0
aI0
aI1
aI0
aI0
aI1
aI1
aI1
aI1
aI0
aI0
aI1
aI0
aI1
aI0
aI0
aI4
aa(lp126
S'pitviper'
p127
aI0
aI0
aI1
aI0
aI0
aI0
aI1
aI1
aI1
aI1
aI1
aI0
aI0
aI1
aI0
aI0
aI3
aa(lp128
S'platypus'
p129
aI1
aI0
aI1
aI1
aI0
aI1
aI1
aI0
aI1
aI1
aI0
aI0
aI4
aI1
aI0
aI1
aI1
aa(lp130
S'polecat'
p131
aI1
aI0
aI0
aI1
aI0
aI0
aI1
aI1
aI1
aI1
aI0
aI0
aI4
aI1
aI0
aI1
aI1
aa(lp132
S'pony'
p133
aI1
aI0
aI0
aI1
aI0
aI0
aI0
aI1
aI1
aI1
aI0
aI0
aI4
aI1
aI1
aI1
aI1
aa(lp134
S'porpoise'
p135
aI0
aI0
aI0
aI1
aI0
aI1
aI1
aI1
aI1
aI1
aI0
aI1
aI0
aI1
aI0
aI1
aI1
aa(lp136
S'puma'
p137
aI1
aI0
aI0
aI1
aI0
aI0
aI1
aI1
aI1
aI1
aI0
aI0
aI4
aI1
aI0
aI1
aI1
aa(lp138
S'pussycat'
p139
aI1
aI0
aI0
aI1
aI0
aI0
aI1
aI1
aI1
aI1
aI0
aI0
aI4
aI1
aI1
aI1
aI1
aa(lp140
S'raccoon'
p141
aI1
aI0
aI0
aI1
aI0
aI0
aI1
aI1
aI1
aI1
aI0
aI0
aI4
aI1
aI0
aI1
aI1
aa(lp142
S'reindeer'
p143
aI1
aI0
aI0
aI1
aI0
aI0
aI0
aI1
aI1
aI1
aI0
aI0
aI4
aI1
aI1
aI1
aI1
aa(lp144
S'rhea'
p145
aI0
aI1
aI1
aI0
aI0
aI0
aI1
aI0
aI1
aI1
aI0
aI0
aI2
aI1
aI0
aI1
aI2
aa(lp146
S'scorpion'
p147
aI0
aI0
aI0
aI0
aI0
aI0
aI1
aI0
aI0
aI1
aI1
aI0
aI8
aI1
aI0
aI0
aI7
aa(lp148
S'seahorse'
p149
aI0
aI0
aI1
aI0
aI0
aI1
aI0
aI1
aI1
aI0
aI0
aI1
aI0
aI1
aI0
aI0
aI4
aa(lp150
S'seal'
p151
aI1
aI0
aI0
aI1
aI0
aI1
aI1
aI1
aI1
aI1
aI0
aI1
aI0
aI0
aI0
aI1
aI1
aa(lp152
S'sealion'
p153
aI1
aI0
aI0
aI1
aI0
aI1
aI1
aI1
aI1
aI1
aI0
aI1
aI2
aI1
aI0
aI1
aI1
aa(lp154
S'seasnake'
p155
aI0
aI0
aI0
aI0
aI0
aI1
aI1
aI1
aI1
aI0
aI1
aI0
aI0
aI1
aI0
aI0
aI3
aa(lp156
S'seawasp'
p157
aI0
aI0
aI1
aI0
aI0
aI1
aI1
aI0
aI0
aI0
aI1
aI0
aI0
aI0
aI0
aI0
aI7
aa(lp158
S'skimmer'
p159
aI0
aI1
aI1
aI0
aI1
aI1
aI1
aI0
aI1
aI1
aI0
aI0
aI2
aI1
aI0
aI0
aI2
aa(lp160
S'skua'
p161
aI0
aI1
aI1
aI0
aI1
aI1
aI1
aI0
aI1
aI1
aI0
aI0
aI2
aI1
aI0
aI0
aI2
aa(lp162
S'slowworm'
p163
aI0
aI0
aI1
aI0
aI0
aI0
aI1
aI1
aI1
aI1
aI0
aI0
aI0
aI1
aI0
aI0
aI3
aa(lp164
S'slug'
p165
aI0
aI0
aI1
aI0
aI0
aI0
aI0
aI0
aI0
aI1
aI0
aI0
aI0
aI0
aI0
aI0
aI7
aa(lp166
S'sole'
p167
aI0
aI0
aI1
aI0
aI0
aI1
aI0
aI1
aI1
aI0
aI0
aI1
aI0
aI1
aI0
aI0
aI4
aa(lp168
S'sparrow'
p169
aI0
aI1
aI1
aI0
aI1
aI0
aI0
aI0
aI1
aI1
aI0
aI0
aI2
aI1
aI0
aI0
aI2
aa(lp170
S'squirrel'
p171
aI1
aI0
aI0
aI1
aI0
aI0
aI0
aI1
aI1
aI1
aI0
aI0
aI2
aI1
aI0
aI0
aI1
aa(lp172
S'starfish'
p173
aI0
aI0
aI1
aI0
aI0
aI1
aI1
aI0
aI0
aI0
aI0
aI0
aI5
aI0
aI0
aI0
aI7
aa(lp174
S'stingray'
p175
aI0
aI0
aI1
aI0
aI0
aI1
aI1
aI1
aI1
aI0
aI1
aI1
aI0
aI1
aI0
aI1
aI4
aa(lp176
S'swan'
p177
aI0
aI1
aI1
aI0
aI1
aI1
aI0
aI0
aI1
aI1
aI0
aI0
aI2
aI1
aI0
aI1
aI2
aa(lp178
S'termite'
p179
aI0
aI0
aI1
aI0
aI0
aI0
aI0
aI0
aI0
aI1
aI0
aI0
aI6
aI0
aI0
aI0
aI6
aa(lp180
S'toad'
p181
aI0
aI0
aI1
aI0
aI0
aI1
aI0
aI1
aI1
aI1
aI0
aI0
aI4
aI0
aI0
aI0
aI5
aa(lp182
S'tortoise'
p183
aI0
aI0
aI1
aI0
aI0
aI0
aI0
aI0
aI1
aI1
aI0
aI0
aI4
aI1
aI0
aI1
aI3
aa(lp184
S'tuatara'
p185
aI0
aI0
aI1
aI0
aI0
aI0
aI1
aI1
aI1
aI1
aI0
aI0
aI4
aI1
aI0
aI0
aI3
aa(lp186
S'tuna'
p187
aI0
aI0
aI1
aI0
aI0
aI1
aI1
aI1
aI1
aI0
aI0
aI1
aI0
aI1
aI0
aI1
aI4
aa(lp188
S'vampire'
p189
aI1
aI0
aI0
aI1
aI1
aI0
aI0
aI1
aI1
aI1
aI0
aI0
aI2
aI1
aI0
aI0
aI1
aa(lp190
S'vole'
p191
aI1
aI0
aI0
aI1
aI0
aI0
aI0
aI1
aI1
aI1
aI0
aI0
aI4
aI1
aI0
aI0
aI1
aa(lp192
S'vulture'
p193
aI0
aI1
aI1
aI0
aI1
aI0
aI1
aI0
aI1
aI1
aI0
aI0
aI2
aI1
aI0
aI1
aI2
aa(lp194
S'wallaby'
p195
aI1
aI0
aI0
aI1
aI0
aI0
aI0
aI1
aI1
aI1
aI0
aI0
aI2
aI1
aI0
aI1
aI1
aa(lp196
S'wasp'
p197
aI1
aI0
aI1
aI0
aI1
aI0
aI0
aI0
aI0
aI1
aI1
aI0
aI6
aI0
aI0
aI0
aI6
aa(lp198
S'wolf'
p199
aI1
aI0
aI0
aI1
aI0
aI0
aI1
aI1
aI1
aI1
aI0
aI0
aI4
aI1
aI0
aI1
aI1
aa(lp200
S'worm'
p201
aI0
aI0
aI1
aI0
aI0
aI0
aI0
aI0
aI0
aI1
aI0
aI0
aI0
aI0
aI0
aI0
aI7
aa(lp202
S'wren'
p203
aI0
aI1
aI1
aI0
aI1
aI0
aI0
aI0
aI1
aI1
aI0
aI0
aI2
aI1
aI0
aI0
aI2
aa.